(lp0
I252
aI76
aI12
aI41
aI54
aI63
aI58
aI34
aI16
aI7
aI2
aI0
aI3
aI2
aI2
aI18
aI162
aI211
aI187
aI258
aI69
aI66
aI99
aI140
aI67
aI86
aI35
aI36
aI43
aI42
aI42
aI36
aI7
aI6
aI0
aI0
aI0
aI0
aI4
aI2
aI24
aI46
aI47
aI20
aI13
aI33
aI54
aI139
aI76
aI53
aI32
aI54
aI48
aI81
aI49
aI28
aI21
aI1
aI2
aI1
aI0
aI1
aI17
aI10
aI82
aI241
aI319
aI127
aI156
aI474
aI278
aI98
aI47
aI41
aI26
aI33
aI45
aI49
aI71
aI34
aI12
aI8
aI7
aI2
aI0
aI4
aI13
aI77
aI226
aI147
aI82
aI85
aI21
aI16
aI35
aI38
aI35
aI14
aI9
aI8
aI7
aI4
aI8
aI3
aI4
aI0
aI0
aI0
aI2
aI0
aI1
aI3
aI6
aI37
aI26
aI46
aI16
aI14
aI120
aI53
aI13
aI58
aI5
aI5
aI4
aI8
aI6
aI5
aI7
aI3
aI1
aI0
aI0
aI0
aI2
aI5
aI2
aI6
aI6
aI12
aI3
aI7
aI12
aI7
aI3
aI11
aI6
aI7
aI4
aI4
aI7
aI5
aI0
aI0
aI2
aI1
aI0
aI1
aI2
aI3
aI4
aI9
aI6
aI3
aI3
aI7
aI3
aI5
aI3
aI2
aI1
aI2
aI5
aI10
aI7
aI2
aI4
aI1
aI2
aI1
aI0
aI2
aI2
aI0
aI63
aI30
aI8
aI9
aI2
aI3
aI7
aI3
aI2
aI5
aI1
aI0
aI3
aI5
aI3
aI3
aI2
aI0
aI0
aI0
aI7
aI0
aI0
aI1
aI1
aI2
aI0
aI2
aI0
aI2
aI0
aI1
aI8
aI0
aI1
aI1
aI1
aI2
aI2
aI5
aI1
aI2
aI0
aI0
aI0
aI0
aI4
aI1
aI0
aI2
aI0
aI1
aI0
aI0
aI0
aI0
aI2
aI1
aI0
aI0
aI1
aI1
aI1
aI2
aI2
aI0
aI0
aI0
aI0
aI0
aI1
aI0
aI1
aI0
aI0
aI2
aI0
aI0
aI2
aI0
aI0
aI0
aI0
aI1
aI0
aI1
aI2
aI0
aI0
aI0
aI0
aI0
aI0
aI0
aI0
aI1
aI0
aI0
aI0
aI0
aI0
aI0
aI1
aI0
aI0
aI0
aI1
aI0
aI1
aI0
aI0
aI0
aI0
aI0
aI0
aI0
aI0
aI0
aI1
aI1
aI1
aI2
aI1
aI1
aI0
aI1
aI0
aI0
aI0
aI0
aI0
aI1
aI0
aI2
aI2
aI0
aI1
aI0
aI1
aI0
aI0
aI0
aI0
aI0
aI2
aI0
aI0
aI0
aI2
aI0
aI0
aI0
aI0
aI0
aI1
aI0
aI0
aI0
aI1
aI0
aI0
aI0
aI0
aI0
aI0
aI0
aI0
aI0
aI0
aI0
aI1
aI0
aI0
aI0
aI2
aI1
aI0
aI0
aI0
aI0
aI0
aI2
aI0
aI0
aI0
aI0
aI0
aI0
aI0
aI0
aI0
aI0
aI0
aI0
aI0
aI1
aI0
aI0
aI0
aI0
aI0
aI1
aI0
aI1
aI0
aI0
aI0
aI0
aI0
aI0
aI0
aI0
aI0
aI0
aI0
aI0
aI0
aI1
aI0
aI0
aI0
aI0
aI0
aI1
aI0
aI0
aI0
aI0
aI0
aI0
aI1
aI0
aI0
aI0
aI0
aI0
aI0
aI0
aI0
aI1
aI0
aI0
aI0
aI1
aI0
aI0
aI0
aI0
aI1
aI0
aI0
aI1
aI0
aI0
aI0
aI3
aI0
aI0
aI0
aI0
aI0
aI0
aI1
aI0
aI0
aI0
aI1
aI0
aI0
aI1
aI1
aI0
aI0
aI2
aI0
aI0
aI0
aI0
aI1
aI2
aI0
aI0
aI1
aI0
aI0
aI0
aI17
aI0
aI0
aI0
aI0
aI0
aI0
aI0
aI0
aI0
aI0
aI0
aI0
aI0
aI0
aI0
aI0
aI0
aI0
aI0
aI0
aI0
aI0
aI0
aI2
aI0
aI0
aI0
aI0
aI0
aI1
aI2
aI0
aI0
aI0
aI1
aI0
aI0
aI0
aI0
aI1
aI0
aI0
aI0
aI0
aI0
aI0
aI0
aI0
aI1
aI0
aI1
aI1
aI0
aI3
a.